; Function Attrs: mustprogress nounwind uwtable
define hidden void @_ZN18OpenImageIO_v2_6_09TGAOutputD0Ev(ptr noundef nonnull align 8 dereferenceable(296) %this) unnamed_addr #3 align 2 personality ptr @__gxx_personality_v0 {
entry:
  %call.i = invoke noundef zeroext i1 @_ZN18OpenImageIO_v2_6_09TGAOutput5closeEv(ptr noundef nonnull align 8 dereferenceable(296) %this)
          to label %invoke.cont.i unwind label %terminate.lpad.i

invoke.cont.i:                                    ; preds = %entry
  %m_thumb.i = getelementptr inbounds i8, ptr %this, i64 280
  tail call void @_ZN18OpenImageIO_v2_6_08ImageBufD1Ev(ptr noundef nonnull align 8 dereferenceable(16) %m_thumb.i) #20
  %m_tilebuffer.i = getelementptr inbounds i8, ptr %this, i64 256
  %0 = load ptr, ptr %m_tilebuffer.i, align 8
  %tobool.not.i.i.i.i = icmp eq ptr %0, null
  br i1 %tobool.not.i.i.i.i, label %_ZNSt6vectorIhSaIhEED2Ev.exit.i, label %if.then.i.i.i.i

if.then.i.i.i.i:                                  ; preds = %invoke.cont.i
  tail call void @_ZdlPv(ptr noundef nonnull %0) #21
  br label %_ZNSt6vectorIhSaIhEED2Ev.exit.i

_ZNSt6vectorIhSaIhEED2Ev.exit.i:                  ; preds = %if.then.i.i.i.i, %invoke.cont.i
  %m_scratch.i = getelementptr inbounds i8, ptr %this, i64 224
  %1 = load ptr, ptr %m_scratch.i, align 8
  %tobool.not.i.i.i1.i = icmp eq ptr %1, null
  br i1 %tobool.not.i.i.i1.i, label %_ZN18OpenImageIO_v2_6_09TGAOutputD2Ev.exit, label %if.then.i.i.i2.i

if.then.i.i.i2.i:                                 ; preds = %_ZNSt6vectorIhSaIhEED2Ev.exit.i
  tail call void @_ZdlPv(ptr noundef nonnull %1) #21
  br label %_ZN18OpenImageIO_v2_6_09TGAOutputD2Ev.exit

terminate.lpad.i:                                 ; preds = %entry
  %2 = landingpad { ptr, i32 }
          catch ptr null
  %3 = extractvalue { ptr, i32 } %2, 0
  tail call void @__clang_call_terminate(ptr %3) #22
  unreachable

_ZN18OpenImageIO_v2_6_09TGAOutputD2Ev.exit:       ; preds = %_ZNSt6vectorIhSaIhEED2Ev.exit.i, %if.then.i.i.i2.i
  %m_filename.i = getelementptr inbounds i8, ptr %this, i64 184
  tail call void @_ZNSt7__cxx1112basic_stringIcSt11char_traitsIcESaIcEED1Ev(ptr noundef nonnull align 8 dereferenceable(32) %m_filename.i) #20
  tail call void @_ZN18OpenImageIO_v2_6_011ImageOutputD2Ev(ptr noundef nonnull align 8 dereferenceable(184) %this) #20
  tail call void @_ZN18OpenImageIO_v2_6_011ImageOutputdlEPv(ptr noundef nonnull %this) #20
  ret void
}